target datalayout = "e-m:e-p270:32:32-p271:32:32-p272:64:64-i64:64-i128:128-f80:128-n8:16:32:64-S128"
target triple = "x86_64-pc-linux-gnu"

%struct.Plane = type { [2 x ptr], [2 x ptr], i32, i32, i64 }

; Function Attrs: nounwind uwtable
define internal void @output_plane(ptr noundef %0, i32 noundef %1, ptr noundef %2, i64 noundef %3, i32 noundef %4) #1 {
  %6 = alloca ptr, align 8
  %7 = alloca i32, align 4
  %8 = alloca ptr, align 8
  %9 = alloca i64, align 8
  %10 = alloca i32, align 4
  %11 = alloca i32, align 4
  %12 = alloca i32, align 4
  %13 = alloca ptr, align 8
  %14 = alloca i64, align 8
  store ptr %0, ptr %6, align 8, !tbaa !80
  store i32 %1, ptr %7, align 4, !tbaa !49
  store ptr %2, ptr %8, align 8, !tbaa !47
  store i64 %3, ptr %9, align 8, !tbaa !65
  store i32 %4, ptr %10, align 4, !tbaa !49
  call void @llvm.lifetime.start.p0(i64 4, ptr %11) #10
  call void @llvm.lifetime.start.p0(i64 4, ptr %12) #10
  call void @llvm.lifetime.start.p0(i64 8, ptr %13) #10
  %15 = load ptr, ptr %6, align 8, !tbaa !80
  %16 = getelementptr inbounds nuw %struct.Plane, ptr %15, i32 0, i32 1
  %17 = load i32, ptr %7, align 4, !tbaa !49
  %18 = sext i32 %17 to i64
  %19 = getelementptr inbounds [2 x ptr], ptr %16, i64 0, i64 %18
  %20 = load ptr, ptr %19, align 8, !tbaa !47
  store ptr %20, ptr %13, align 8, !tbaa !47
  call void @llvm.lifetime.start.p0(i64 8, ptr %14) #10
  %21 = load ptr, ptr %6, align 8, !tbaa !80
  %22 = getelementptr inbounds nuw %struct.Plane, ptr %21, i32 0, i32 4
  %23 = load i64, ptr %22, align 8, !tbaa !66
  store i64 %23, ptr %14, align 8, !tbaa !65
  %24 = load i32, ptr %10, align 4, !tbaa !49
  %25 = load ptr, ptr %6, align 8, !tbaa !80
  %26 = getelementptr inbounds nuw %struct.Plane, ptr %25, i32 0, i32 3
  %27 = load i32, ptr %26, align 4, !tbaa !69
  %28 = icmp ugt i32 %24, %27
  br i1 %28, label %29, label %33

29:                                               ; preds = %5
  %30 = load ptr, ptr %6, align 8, !tbaa !80
  %31 = getelementptr inbounds nuw %struct.Plane, ptr %30, i32 0, i32 3
  %32 = load i32, ptr %31, align 4, !tbaa !69
  br label %35

33:                                               ; preds = %5
  %34 = load i32, ptr %10, align 4, !tbaa !49
  br label %35

35:                                               ; preds = %33, %29
  %36 = phi i32 [ %32, %29 ], [ %34, %33 ]
  store i32 %36, ptr %10, align 4, !tbaa !49
  store i32 0, ptr %12, align 4, !tbaa !49
  br label %37

37:                                               ; preds = %100, %35
  %38 = load i32, ptr %12, align 4, !tbaa !49
  %39 = load i32, ptr %10, align 4, !tbaa !49
  %40 = icmp slt i32 %38, %39
  br i1 %40, label %41, label %103

41:                                               ; preds = %37
  store i32 0, ptr %11, align 4, !tbaa !49
  br label %42

42:                                               ; preds = %59, %41
  %43 = load i32, ptr %11, align 4, !tbaa !49
  %44 = load ptr, ptr %6, align 8, !tbaa !80
  %45 = getelementptr inbounds nuw %struct.Plane, ptr %44, i32 0, i32 2
  %46 = load i32, ptr %45, align 8, !tbaa !68
  %47 = lshr i32 %46, 2
  %48 = icmp ult i32 %43, %47
  br i1 %48, label %49, label %62

49:                                               ; preds = %42
  %50 = load ptr, ptr %13, align 8, !tbaa !47
  %51 = load i32, ptr %50, align 4, !tbaa !59
  %52 = and i32 %51, 2139062143
  %53 = shl i32 %52, 1
  %54 = load ptr, ptr %8, align 8, !tbaa !47
  store i32 %53, ptr %54, align 4, !tbaa !59
  %55 = load ptr, ptr %13, align 8, !tbaa !47
  %56 = getelementptr inbounds i8, ptr %55, i64 4
  store ptr %56, ptr %13, align 8, !tbaa !47
  %57 = load ptr, ptr %8, align 8, !tbaa !47
  %58 = getelementptr inbounds i8, ptr %57, i64 4
  store ptr %58, ptr %8, align 8, !tbaa !47
  br label %59

59:                                               ; preds = %49
  %60 = load i32, ptr %11, align 4, !tbaa !49
  %61 = add nsw i32 %60, 1
  store i32 %61, ptr %11, align 4, !tbaa !49
  br label %42, !llvm.loop !94

62:                                               ; preds = %42
  %63 = load i32, ptr %11, align 4, !tbaa !49
  %64 = shl i32 %63, 2
  store i32 %64, ptr %11, align 4, !tbaa !49
  br label %65

65:                                               ; preds = %80, %62
  %66 = load i32, ptr %11, align 4, !tbaa !49
  %67 = load ptr, ptr %6, align 8, !tbaa !80
  %68 = getelementptr inbounds nuw %struct.Plane, ptr %67, i32 0, i32 2
  %69 = load i32, ptr %68, align 8, !tbaa !68
  %70 = icmp ult i32 %66, %69
  br i1 %70, label %71, label %83

71:                                               ; preds = %65
  %72 = load ptr, ptr %13, align 8, !tbaa !47
  %73 = getelementptr inbounds nuw i8, ptr %72, i32 1
  store ptr %73, ptr %13, align 8, !tbaa !47
  %74 = load i8, ptr %72, align 1, !tbaa !59
  %75 = zext i8 %74 to i32
  %76 = shl i32 %75, 1
  %77 = trunc i32 %76 to i8
  %78 = load ptr, ptr %8, align 8, !tbaa !47
  %79 = getelementptr inbounds nuw i8, ptr %78, i32 1
  store ptr %79, ptr %8, align 8, !tbaa !47
  store i8 %77, ptr %78, align 1, !tbaa !59
  br label %80

80:                                               ; preds = %71
  %81 = load i32, ptr %11, align 4, !tbaa !49
  %82 = add nsw i32 %81, 1
  store i32 %82, ptr %11, align 4, !tbaa !49
  br label %65, !llvm.loop !95

83:                                               ; preds = %65
  %84 = load i64, ptr %14, align 8, !tbaa !65
  %85 = load ptr, ptr %6, align 8, !tbaa !80
  %86 = getelementptr inbounds nuw %struct.Plane, ptr %85, i32 0, i32 2
  %87 = load i32, ptr %86, align 8, !tbaa !68
  %88 = zext i32 %87 to i64
  %89 = sub nsw i64 %84, %88
  %90 = load ptr, ptr %13, align 8, !tbaa !47
  %91 = getelementptr inbounds i8, ptr %90, i64 %89
  store ptr %91, ptr %13, align 8, !tbaa !47
  %92 = load i64, ptr %9, align 8, !tbaa !65
  %93 = load ptr, ptr %6, align 8, !tbaa !80
  %94 = getelementptr inbounds nuw %struct.Plane, ptr %93, i32 0, i32 2
  %95 = load i32, ptr %94, align 8, !tbaa !68
  %96 = zext i32 %95 to i64
  %97 = sub nsw i64 %92, %96
  %98 = load ptr, ptr %8, align 8, !tbaa !47
  %99 = getelementptr inbounds i8, ptr %98, i64 %97
  store ptr %99, ptr %8, align 8, !tbaa !47
  br label %100

100:                                              ; preds = %83
  %101 = load i32, ptr %12, align 4, !tbaa !49
  %102 = add nsw i32 %101, 1
  store i32 %102, ptr %12, align 4, !tbaa !49
  br label %37, !llvm.loop !96

103:                                              ; preds = %37
  call void @llvm.lifetime.end.p0(i64 8, ptr %14) #10
  call void @llvm.lifetime.end.p0(i64 8, ptr %13) #10
  call void @llvm.lifetime.end.p0(i64 4, ptr %12) #10
  call void @llvm.lifetime.end.p0(i64 4, ptr %11) #10
  ret void
}