; Function Attrs: nofree norecurse nosync nounwind memory(read, argmem: readwrite, inaccessiblemem: none) uwtable
define internal fastcc void @output_plane(ptr noundef readonly captures(none) %0, i32 noundef range(i32 0, 256) %1, ptr noundef writeonly captures(none) %2, i64 noundef range(i64 -2147483648, 2147483648) %3, i32 noundef %4) unnamed_addr #6 {
  %6 = getelementptr inbounds nuw i8, ptr %0, i64 40
  %7 = load i64, ptr %6, align 8, !tbaa !63
  %8 = getelementptr inbounds nuw i8, ptr %0, i64 36
  %9 = load i32, ptr %8, align 4, !tbaa !66
  %. = tail call i32 @llvm.umin.i32(i32 %4, i32 %9)
  %10 = icmp sgt i32 %., 0
  br i1 %10, label %.preheader.lr.ph, label %._crit_edge55

.preheader.lr.ph:                                 ; preds = %5
  %11 = getelementptr inbounds nuw i8, ptr %0, i64 16
  %12 = zext nneg i32 %1 to i64
  %13 = getelementptr inbounds nuw [2 x ptr], ptr %11, i64 0, i64 %12
  %14 = load ptr, ptr %13, align 8, !tbaa !60
  %15 = getelementptr inbounds nuw i8, ptr %0, i64 32
  %.pre = load i32, ptr %15, align 8, !tbaa !65
  br label %.preheader

.preheader:                                       ; preds = %.preheader.lr.ph, %._crit_edge48
  %16 = phi i32 [ %.pre, %.preheader.lr.ph ], [ %36, %._crit_edge48 ]
  %.054 = phi ptr [ %2, %.preheader.lr.ph ], [ %41, %._crit_edge48 ]
  %.02853 = phi ptr [ %14, %.preheader.lr.ph ], [ %39, %._crit_edge48 ]
  %.03152 = phi i32 [ 0, %.preheader.lr.ph ], [ %42, %._crit_edge48 ]
  %.not = icmp ult i32 %16, 4
  br i1 %.not, label %._crit_edge, label %.lr.ph

.lr.ph:                                           ; preds = %.preheader, %.lr.ph
  %.140 = phi ptr [ %21, %.lr.ph ], [ %.054, %.preheader ]
  %.12939 = phi ptr [ %20, %.lr.ph ], [ %.02853, %.preheader ]
  %.03238 = phi i32 [ %22, %.lr.ph ], [ 0, %.preheader ]
  %17 = load i32, ptr %.12939, align 4, !tbaa !40
  %18 = shl i32 %17, 1
  %19 = and i32 %18, -16843010
  store i32 %19, ptr %.140, align 4, !tbaa !40
  %20 = getelementptr inbounds nuw i8, ptr %.12939, i64 4
  %21 = getelementptr inbounds nuw i8, ptr %.140, i64 4
  %22 = add nuw nsw i32 %.03238, 1
  %23 = load i32, ptr %15, align 8, !tbaa !65
  %24 = lshr i32 %23, 2
  %25 = icmp samesign ult i32 %22, %24
  br i1 %25, label %.lr.ph, label %._crit_edge.loopexit, !llvm.loop !85

._crit_edge.loopexit:                             ; preds = %.lr.ph
  %26 = shl nuw i32 %22, 2
  br label %._crit_edge

._crit_edge:                                      ; preds = %._crit_edge.loopexit, %.preheader
  %27 = phi i32 [ %16, %.preheader ], [ %23, %._crit_edge.loopexit ]
  %.032.lcssa = phi i32 [ 0, %.preheader ], [ %26, %._crit_edge.loopexit ]
  %.129.lcssa = phi ptr [ %.02853, %.preheader ], [ %20, %._crit_edge.loopexit ]
  %.1.lcssa = phi ptr [ %.054, %.preheader ], [ %21, %._crit_edge.loopexit ]
  %28 = icmp ult i32 %.032.lcssa, %27
  br i1 %28, label %.lr.ph47, label %._crit_edge48

.lr.ph47:                                         ; preds = %._crit_edge, %.lr.ph47
  %.245 = phi ptr [ %32, %.lr.ph47 ], [ %.1.lcssa, %._crit_edge ]
  %.23044 = phi ptr [ %29, %.lr.ph47 ], [ %.129.lcssa, %._crit_edge ]
  %.13343 = phi i32 [ %33, %.lr.ph47 ], [ %.032.lcssa, %._crit_edge ]
  %29 = getelementptr inbounds nuw i8, ptr %.23044, i64 1
  %30 = load i8, ptr %.23044, align 1, !tbaa !40
  %31 = shl i8 %30, 1
  %32 = getelementptr inbounds nuw i8, ptr %.245, i64 1
  store i8 %31, ptr %.245, align 1, !tbaa !40
  %33 = add nuw nsw i32 %.13343, 1
  %34 = load i32, ptr %15, align 8, !tbaa !65
  %35 = icmp ult i32 %33, %34
  br i1 %35, label %.lr.ph47, label %._crit_edge48, !llvm.loop !86

._crit_edge48:                                    ; preds = %.lr.ph47, %._crit_edge
  %36 = phi i32 [ %27, %._crit_edge ], [ %34, %.lr.ph47 ]
  %.230.lcssa = phi ptr [ %.129.lcssa, %._crit_edge ], [ %29, %.lr.ph47 ]
  %.2.lcssa = phi ptr [ %.1.lcssa, %._crit_edge ], [ %32, %.lr.ph47 ]
  %37 = zext i32 %36 to i64
  %38 = sub nsw i64 %7, %37
  %39 = getelementptr inbounds i8, ptr %.230.lcssa, i64 %38
  %40 = sub nsw i64 %3, %37
  %41 = getelementptr inbounds i8, ptr %.2.lcssa, i64 %40
  %42 = add nuw nsw i32 %.03152, 1
  %exitcond.not = icmp eq i32 %42, %.
  br i1 %exitcond.not, label %._crit_edge55, label %.preheader, !llvm.loop !87

._crit_edge55:                                    ; preds = %._crit_edge48, %5
  ret void
}